target datalayout = "e-m:e-p270:32:32-p271:32:32-p272:64:64-i64:64-i128:128-f80:128-n8:16:32:64-S128"
target triple = "x86_64-pc-linux-gnu"

@H5_libinit_g = external global i8, align 1
@H5_libterm_g = external global i8, align 1
@H5T_NATIVE_SCHAR_g = external global i64, align 8
@H5T_NATIVE_UCHAR_g = external global i64, align 8
@H5T_NATIVE_SHORT_g = external global i64, align 8
@H5T_NATIVE_USHORT_g = external global i64, align 8
@H5T_NATIVE_INT_g = external global i64, align 8
@H5T_NATIVE_UINT_g = external global i64, align 8
@H5T_NATIVE_LONG_g = external global i64, align 8
@H5T_NATIVE_ULONG_g = external global i64, align 8
@H5T_NATIVE_LLONG_g = external global i64, align 8
@H5T_NATIVE_ULLONG_g = external global i64, align 8
@.str.272 = private unnamed_addr constant [39 x i8] c"Packed Bit not valid for this datatype\00", align 1
@packed_data_offset = external global i32, align 4
@packed_data_length = external global i32, align 4
@.str.273 = private unnamed_addr constant [57 x i8] c"Packed Bit offset+length value(%u) too large. Max is %d\0A\00", align 1
@packed_data_mask = external global i64, align 8
@.str.274 = private unnamed_addr constant [15 x i8] c"%s %s=%u %s=%u\00", align 1
@.str.275 = private unnamed_addr constant [12 x i8] c"PACKED_BITS\00", align 1
@.str.276 = private unnamed_addr constant [7 x i8] c"OFFSET\00", align 1
@.str.277 = private unnamed_addr constant [7 x i8] c"LENGTH\00", align 1

; Function Attrs: nounwind uwtable
define void @h5tools_print_packed_bits(ptr noundef %0, i64 noundef %1) #0 {
  %3 = alloca ptr, align 8
  %4 = alloca i64, align 8
  %5 = alloca i32, align 4
  %6 = alloca i64, align 8
  store ptr %0, ptr %3, align 8, !tbaa !35
  store i64 %1, ptr %4, align 8, !tbaa !14
  call void @llvm.lifetime.start.p0(i64 4, ptr %5) #10
  store i32 0, ptr %5, align 4, !tbaa !16
  call void @llvm.lifetime.start.p0(i64 8, ptr %6) #10
  %7 = load i64, ptr %4, align 8, !tbaa !14
  %8 = call i64 @H5Tget_native_type(i64 noundef %7, i32 noundef 0)
  store i64 %8, ptr %6, align 8, !tbaa !14
  %9 = load i64, ptr %6, align 8, !tbaa !14
  %10 = call i32 @H5Tget_class(i64 noundef %9)
  %11 = icmp eq i32 %10, 0
  br i1 %11, label %12, label %263

12:                                               ; preds = %2
  %13 = load i64, ptr %6, align 8, !tbaa !14
  %14 = load i8, ptr @H5_libinit_g, align 1, !tbaa !21, !range !30, !noundef !31
  %15 = trunc i8 %14 to i1
  br i1 %15, label %20, label %16

16:                                               ; preds = %12
  %17 = load i8, ptr @H5_libterm_g, align 1, !tbaa !21, !range !30, !noundef !31
  %18 = trunc i8 %17 to i1
  %19 = xor i1 %18, true
  br label %20

20:                                               ; preds = %16, %12
  %21 = phi i1 [ false, %12 ], [ %19, %16 ]
  %22 = xor i1 %21, true
  %23 = xor i1 %22, true
  %24 = zext i1 %23 to i32
  %25 = sext i32 %24 to i64
  %26 = call i64 @llvm.expect.i64(i64 %25, i64 0)
  %27 = icmp ne i64 %26, 0
  br i1 %27, label %28, label %30

28:                                               ; preds = %20
  %29 = call i32 @H5open()
  br label %31

30:                                               ; preds = %20
  br label %31

31:                                               ; preds = %30, %28
  %32 = load i64, ptr @H5T_NATIVE_SCHAR_g, align 8, !tbaa !14
  %33 = call i32 @H5Tequal(i64 noundef %13, i64 noundef %32)
  %34 = icmp eq i32 %33, 1
  br i1 %34, label %35, label %36

35:                                               ; preds = %31
  store i32 8, ptr %5, align 4, !tbaa !16
  br label %262

36:                                               ; preds = %31
  %37 = load i64, ptr %6, align 8, !tbaa !14
  %38 = load i8, ptr @H5_libinit_g, align 1, !tbaa !21, !range !30, !noundef !31
  %39 = trunc i8 %38 to i1
  br i1 %39, label %44, label %40

40:                                               ; preds = %36
  %41 = load i8, ptr @H5_libterm_g, align 1, !tbaa !21, !range !30, !noundef !31
  %42 = trunc i8 %41 to i1
  %43 = xor i1 %42, true
  br label %44

44:                                               ; preds = %40, %36
  %45 = phi i1 [ false, %36 ], [ %43, %40 ]
  %46 = xor i1 %45, true
  %47 = xor i1 %46, true
  %48 = zext i1 %47 to i32
  %49 = sext i32 %48 to i64
  %50 = call i64 @llvm.expect.i64(i64 %49, i64 0)
  %51 = icmp ne i64 %50, 0
  br i1 %51, label %52, label %54

52:                                               ; preds = %44
  %53 = call i32 @H5open()
  br label %55

54:                                               ; preds = %44
  br label %55

55:                                               ; preds = %54, %52
  %56 = load i64, ptr @H5T_NATIVE_UCHAR_g, align 8, !tbaa !14
  %57 = call i32 @H5Tequal(i64 noundef %37, i64 noundef %56)
  %58 = icmp eq i32 %57, 1
  br i1 %58, label %59, label %60

59:                                               ; preds = %55
  store i32 8, ptr %5, align 4, !tbaa !16
  br label %261

60:                                               ; preds = %55
  %61 = load i64, ptr %6, align 8, !tbaa !14
  %62 = load i8, ptr @H5_libinit_g, align 1, !tbaa !21, !range !30, !noundef !31
  %63 = trunc i8 %62 to i1
  br i1 %63, label %68, label %64

64:                                               ; preds = %60
  %65 = load i8, ptr @H5_libterm_g, align 1, !tbaa !21, !range !30, !noundef !31
  %66 = trunc i8 %65 to i1
  %67 = xor i1 %66, true
  br label %68

68:                                               ; preds = %64, %60
  %69 = phi i1 [ false, %60 ], [ %67, %64 ]
  %70 = xor i1 %69, true
  %71 = xor i1 %70, true
  %72 = zext i1 %71 to i32
  %73 = sext i32 %72 to i64
  %74 = call i64 @llvm.expect.i64(i64 %73, i64 0)
  %75 = icmp ne i64 %74, 0
  br i1 %75, label %76, label %78

76:                                               ; preds = %68
  %77 = call i32 @H5open()
  br label %79

78:                                               ; preds = %68
  br label %79

79:                                               ; preds = %78, %76
  %80 = load i64, ptr @H5T_NATIVE_SHORT_g, align 8, !tbaa !14
  %81 = call i32 @H5Tequal(i64 noundef %61, i64 noundef %80)
  %82 = icmp eq i32 %81, 1
  br i1 %82, label %83, label %84

83:                                               ; preds = %79
  store i32 16, ptr %5, align 4, !tbaa !16
  br label %260

84:                                               ; preds = %79
  %85 = load i64, ptr %6, align 8, !tbaa !14
  %86 = load i8, ptr @H5_libinit_g, align 1, !tbaa !21, !range !30, !noundef !31
  %87 = trunc i8 %86 to i1
  br i1 %87, label %92, label %88

88:                                               ; preds = %84
  %89 = load i8, ptr @H5_libterm_g, align 1, !tbaa !21, !range !30, !noundef !31
  %90 = trunc i8 %89 to i1
  %91 = xor i1 %90, true
  br label %92

92:                                               ; preds = %88, %84
  %93 = phi i1 [ false, %84 ], [ %91, %88 ]
  %94 = xor i1 %93, true
  %95 = xor i1 %94, true
  %96 = zext i1 %95 to i32
  %97 = sext i32 %96 to i64
  %98 = call i64 @llvm.expect.i64(i64 %97, i64 0)
  %99 = icmp ne i64 %98, 0
  br i1 %99, label %100, label %102

100:                                              ; preds = %92
  %101 = call i32 @H5open()
  br label %103

102:                                              ; preds = %92
  br label %103

103:                                              ; preds = %102, %100
  %104 = load i64, ptr @H5T_NATIVE_USHORT_g, align 8, !tbaa !14
  %105 = call i32 @H5Tequal(i64 noundef %85, i64 noundef %104)
  %106 = icmp eq i32 %105, 1
  br i1 %106, label %107, label %108

107:                                              ; preds = %103
  store i32 16, ptr %5, align 4, !tbaa !16
  br label %259

108:                                              ; preds = %103
  %109 = load i64, ptr %6, align 8, !tbaa !14
  %110 = load i8, ptr @H5_libinit_g, align 1, !tbaa !21, !range !30, !noundef !31
  %111 = trunc i8 %110 to i1
  br i1 %111, label %116, label %112

112:                                              ; preds = %108
  %113 = load i8, ptr @H5_libterm_g, align 1, !tbaa !21, !range !30, !noundef !31
  %114 = trunc i8 %113 to i1
  %115 = xor i1 %114, true
  br label %116

116:                                              ; preds = %112, %108
  %117 = phi i1 [ false, %108 ], [ %115, %112 ]
  %118 = xor i1 %117, true
  %119 = xor i1 %118, true
  %120 = zext i1 %119 to i32
  %121 = sext i32 %120 to i64
  %122 = call i64 @llvm.expect.i64(i64 %121, i64 0)
  %123 = icmp ne i64 %122, 0
  br i1 %123, label %124, label %126

124:                                              ; preds = %116
  %125 = call i32 @H5open()
  br label %127

126:                                              ; preds = %116
  br label %127

127:                                              ; preds = %126, %124
  %128 = load i64, ptr @H5T_NATIVE_INT_g, align 8, !tbaa !14
  %129 = call i32 @H5Tequal(i64 noundef %109, i64 noundef %128)
  %130 = icmp eq i32 %129, 1
  br i1 %130, label %131, label %132

131:                                              ; preds = %127
  store i32 32, ptr %5, align 4, !tbaa !16
  br label %258

132:                                              ; preds = %127
  %133 = load i64, ptr %6, align 8, !tbaa !14
  %134 = load i8, ptr @H5_libinit_g, align 1, !tbaa !21, !range !30, !noundef !31
  %135 = trunc i8 %134 to i1
  br i1 %135, label %140, label %136

136:                                              ; preds = %132
  %137 = load i8, ptr @H5_libterm_g, align 1, !tbaa !21, !range !30, !noundef !31
  %138 = trunc i8 %137 to i1
  %139 = xor i1 %138, true
  br label %140

140:                                              ; preds = %136, %132
  %141 = phi i1 [ false, %132 ], [ %139, %136 ]
  %142 = xor i1 %141, true
  %143 = xor i1 %142, true
  %144 = zext i1 %143 to i32
  %145 = sext i32 %144 to i64
  %146 = call i64 @llvm.expect.i64(i64 %145, i64 0)
  %147 = icmp ne i64 %146, 0
  br i1 %147, label %148, label %150

148:                                              ; preds = %140
  %149 = call i32 @H5open()
  br label %151

150:                                              ; preds = %140
  br label %151

151:                                              ; preds = %150, %148
  %152 = load i64, ptr @H5T_NATIVE_UINT_g, align 8, !tbaa !14
  %153 = call i32 @H5Tequal(i64 noundef %133, i64 noundef %152)
  %154 = icmp eq i32 %153, 1
  br i1 %154, label %155, label %156

155:                                              ; preds = %151
  store i32 32, ptr %5, align 4, !tbaa !16
  br label %257

156:                                              ; preds = %151
  %157 = load i64, ptr %6, align 8, !tbaa !14
  %158 = load i8, ptr @H5_libinit_g, align 1, !tbaa !21, !range !30, !noundef !31
  %159 = trunc i8 %158 to i1
  br i1 %159, label %164, label %160

160:                                              ; preds = %156
  %161 = load i8, ptr @H5_libterm_g, align 1, !tbaa !21, !range !30, !noundef !31
  %162 = trunc i8 %161 to i1
  %163 = xor i1 %162, true
  br label %164

164:                                              ; preds = %160, %156
  %165 = phi i1 [ false, %156 ], [ %163, %160 ]
  %166 = xor i1 %165, true
  %167 = xor i1 %166, true
  %168 = zext i1 %167 to i32
  %169 = sext i32 %168 to i64
  %170 = call i64 @llvm.expect.i64(i64 %169, i64 0)
  %171 = icmp ne i64 %170, 0
  br i1 %171, label %172, label %174

172:                                              ; preds = %164
  %173 = call i32 @H5open()
  br label %175

174:                                              ; preds = %164
  br label %175

175:                                              ; preds = %174, %172
  %176 = load i64, ptr @H5T_NATIVE_LONG_g, align 8, !tbaa !14
  %177 = call i32 @H5Tequal(i64 noundef %157, i64 noundef %176)
  %178 = icmp eq i32 %177, 1
  br i1 %178, label %179, label %180

179:                                              ; preds = %175
  store i32 64, ptr %5, align 4, !tbaa !16
  br label %256

180:                                              ; preds = %175
  %181 = load i64, ptr %6, align 8, !tbaa !14
  %182 = load i8, ptr @H5_libinit_g, align 1, !tbaa !21, !range !30, !noundef !31
  %183 = trunc i8 %182 to i1
  br i1 %183, label %188, label %184

184:                                              ; preds = %180
  %185 = load i8, ptr @H5_libterm_g, align 1, !tbaa !21, !range !30, !noundef !31
  %186 = trunc i8 %185 to i1
  %187 = xor i1 %186, true
  br label %188

188:                                              ; preds = %184, %180
  %189 = phi i1 [ false, %180 ], [ %187, %184 ]
  %190 = xor i1 %189, true
  %191 = xor i1 %190, true
  %192 = zext i1 %191 to i32
  %193 = sext i32 %192 to i64
  %194 = call i64 @llvm.expect.i64(i64 %193, i64 0)
  %195 = icmp ne i64 %194, 0
  br i1 %195, label %196, label %198

196:                                              ; preds = %188
  %197 = call i32 @H5open()
  br label %199

198:                                              ; preds = %188
  br label %199

199:                                              ; preds = %198, %196
  %200 = load i64, ptr @H5T_NATIVE_ULONG_g, align 8, !tbaa !14
  %201 = call i32 @H5Tequal(i64 noundef %181, i64 noundef %200)
  %202 = icmp eq i32 %201, 1
  br i1 %202, label %203, label %204

203:                                              ; preds = %199
  store i32 64, ptr %5, align 4, !tbaa !16
  br label %255

204:                                              ; preds = %199
  %205 = load i64, ptr %6, align 8, !tbaa !14
  %206 = load i8, ptr @H5_libinit_g, align 1, !tbaa !21, !range !30, !noundef !31
  %207 = trunc i8 %206 to i1
  br i1 %207, label %212, label %208

208:                                              ; preds = %204
  %209 = load i8, ptr @H5_libterm_g, align 1, !tbaa !21, !range !30, !noundef !31
  %210 = trunc i8 %209 to i1
  %211 = xor i1 %210, true
  br label %212

212:                                              ; preds = %208, %204
  %213 = phi i1 [ false, %204 ], [ %211, %208 ]
  %214 = xor i1 %213, true
  %215 = xor i1 %214, true
  %216 = zext i1 %215 to i32
  %217 = sext i32 %216 to i64
  %218 = call i64 @llvm.expect.i64(i64 %217, i64 0)
  %219 = icmp ne i64 %218, 0
  br i1 %219, label %220, label %222

220:                                              ; preds = %212
  %221 = call i32 @H5open()
  br label %223

222:                                              ; preds = %212
  br label %223

223:                                              ; preds = %222, %220
  %224 = load i64, ptr @H5T_NATIVE_LLONG_g, align 8, !tbaa !14
  %225 = call i32 @H5Tequal(i64 noundef %205, i64 noundef %224)
  %226 = icmp eq i32 %225, 1
  br i1 %226, label %227, label %228

227:                                              ; preds = %223
  store i32 64, ptr %5, align 4, !tbaa !16
  br label %254

228:                                              ; preds = %223
  %229 = load i64, ptr %6, align 8, !tbaa !14
  %230 = load i8, ptr @H5_libinit_g, align 1, !tbaa !21, !range !30, !noundef !31
  %231 = trunc i8 %230 to i1
  br i1 %231, label %236, label %232

232:                                              ; preds = %228
  %233 = load i8, ptr @H5_libterm_g, align 1, !tbaa !21, !range !30, !noundef !31
  %234 = trunc i8 %233 to i1
  %235 = xor i1 %234, true
  br label %236

236:                                              ; preds = %232, %228
  %237 = phi i1 [ false, %228 ], [ %235, %232 ]
  %238 = xor i1 %237, true
  %239 = xor i1 %238, true
  %240 = zext i1 %239 to i32
  %241 = sext i32 %240 to i64
  %242 = call i64 @llvm.expect.i64(i64 %241, i64 0)
  %243 = icmp ne i64 %242, 0
  br i1 %243, label %244, label %246

244:                                              ; preds = %236
  %245 = call i32 @H5open()
  br label %247

246:                                              ; preds = %236
  br label %247

247:                                              ; preds = %246, %244
  %248 = load i64, ptr @H5T_NATIVE_ULLONG_g, align 8, !tbaa !14
  %249 = call i32 @H5Tequal(i64 noundef %229, i64 noundef %248)
  %250 = icmp eq i32 %249, 1
  br i1 %250, label %251, label %252

251:                                              ; preds = %247
  store i32 64, ptr %5, align 4, !tbaa !16
  br label %253

252:                                              ; preds = %247
  call void (ptr, ...) @error_msg(ptr noundef @.str.272)
  br label %253

253:                                              ; preds = %252, %251
  br label %254

254:                                              ; preds = %253, %227
  br label %255

255:                                              ; preds = %254, %203
  br label %256

256:                                              ; preds = %255, %179
  br label %257

257:                                              ; preds = %256, %155
  br label %258

258:                                              ; preds = %257, %131
  br label %259

259:                                              ; preds = %258, %107
  br label %260

260:                                              ; preds = %259, %83
  br label %261

261:                                              ; preds = %260, %59
  br label %262

262:                                              ; preds = %261, %35
  br label %263

263:                                              ; preds = %262, %2
  %264 = load i32, ptr %5, align 4, !tbaa !16
  %265 = icmp ugt i32 %264, 0
  br i1 %265, label %266, label %277

266:                                              ; preds = %263
  %267 = load i32, ptr @packed_data_offset, align 4, !tbaa !16
  %268 = load i32, ptr @packed_data_length, align 4, !tbaa !16
  %269 = add i32 %267, %268
  %270 = load i32, ptr %5, align 4, !tbaa !16
  %271 = icmp ugt i32 %269, %270
  br i1 %271, label %272, label %277

272:                                              ; preds = %266
  %273 = load i32, ptr @packed_data_offset, align 4, !tbaa !16
  %274 = load i32, ptr @packed_data_length, align 4, !tbaa !16
  %275 = add i32 %273, %274
  %276 = load i32, ptr %5, align 4, !tbaa !16
  call void (ptr, ...) @error_msg(ptr noundef @.str.273, i32 noundef %275, i32 noundef %276)
  store i64 0, ptr @packed_data_mask, align 8, !tbaa !138
  br label %277

277:                                              ; preds = %272, %266, %263
  %278 = load ptr, ptr %3, align 8, !tbaa !35
  %279 = load i32, ptr @packed_data_offset, align 4, !tbaa !16
  %280 = load i32, ptr @packed_data_length, align 4, !tbaa !16
  %281 = call ptr (ptr, ptr, ...) @h5tools_str_append(ptr noundef %278, ptr noundef @.str.274, ptr noundef @.str.275, ptr noundef @.str.276, i32 noundef %279, ptr noundef @.str.277, i32 noundef %280)
  call void @llvm.lifetime.end.p0(i64 8, ptr %6) #10
  call void @llvm.lifetime.end.p0(i64 4, ptr %5) #10
  ret void
}