; Function Attrs: nounwind uwtable
define void @h5tools_print_packed_bits(ptr noundef %0, i64 noundef %1) local_unnamed_addr #1 {
  %3 = tail call i64 @H5Tget_native_type(i64 noundef %1, i32 noundef 0) #12
  %4 = tail call i32 @H5Tget_class(i64 noundef %3) #12
  %5 = icmp eq i32 %4, 0
  br i1 %5, label %6, label %133

6:                                                ; preds = %2
  %7 = load i8, ptr @H5_libinit_g, align 1, !tbaa !25, !range !49, !noundef !50
  %8 = trunc nuw i8 %7 to i1
  %9 = load i8, ptr @H5_libterm_g, align 1, !range !49
  %10 = trunc nuw i8 %9 to i1
  %11 = select i1 %8, i1 true, i1 %10
  br i1 %11, label %14, label %12, !prof !52

12:                                               ; preds = %6
  %13 = tail call i32 @H5open() #12
  br label %14

14:                                               ; preds = %6, %12
  %15 = load i64, ptr @H5T_NATIVE_SCHAR_g, align 8, !tbaa !19
  %16 = tail call i32 @H5Tequal(i64 noundef %3, i64 noundef %15) #12
  %17 = icmp eq i32 %16, 1
  br i1 %17, label %127, label %18

18:                                               ; preds = %14
  %19 = load i8, ptr @H5_libinit_g, align 1, !tbaa !25, !range !49, !noundef !50
  %20 = trunc nuw i8 %19 to i1
  %21 = load i8, ptr @H5_libterm_g, align 1, !range !49
  %22 = trunc nuw i8 %21 to i1
  %23 = select i1 %20, i1 true, i1 %22
  br i1 %23, label %26, label %24, !prof !52

24:                                               ; preds = %18
  %25 = tail call i32 @H5open() #12
  br label %26

26:                                               ; preds = %18, %24
  %27 = load i64, ptr @H5T_NATIVE_UCHAR_g, align 8, !tbaa !19
  %28 = tail call i32 @H5Tequal(i64 noundef %3, i64 noundef %27) #12
  %29 = icmp eq i32 %28, 1
  br i1 %29, label %127, label %30

30:                                               ; preds = %26
  %31 = load i8, ptr @H5_libinit_g, align 1, !tbaa !25, !range !49, !noundef !50
  %32 = trunc nuw i8 %31 to i1
  %33 = load i8, ptr @H5_libterm_g, align 1, !range !49
  %34 = trunc nuw i8 %33 to i1
  %35 = select i1 %32, i1 true, i1 %34
  br i1 %35, label %38, label %36, !prof !52

36:                                               ; preds = %30
  %37 = tail call i32 @H5open() #12
  br label %38

38:                                               ; preds = %30, %36
  %39 = load i64, ptr @H5T_NATIVE_SHORT_g, align 8, !tbaa !19
  %40 = tail call i32 @H5Tequal(i64 noundef %3, i64 noundef %39) #12
  %41 = icmp eq i32 %40, 1
  br i1 %41, label %127, label %42

42:                                               ; preds = %38
  %43 = load i8, ptr @H5_libinit_g, align 1, !tbaa !25, !range !49, !noundef !50
  %44 = trunc nuw i8 %43 to i1
  %45 = load i8, ptr @H5_libterm_g, align 1, !range !49
  %46 = trunc nuw i8 %45 to i1
  %47 = select i1 %44, i1 true, i1 %46
  br i1 %47, label %50, label %48, !prof !52

48:                                               ; preds = %42
  %49 = tail call i32 @H5open() #12
  br label %50

50:                                               ; preds = %42, %48
  %51 = load i64, ptr @H5T_NATIVE_USHORT_g, align 8, !tbaa !19
  %52 = tail call i32 @H5Tequal(i64 noundef %3, i64 noundef %51) #12
  %53 = icmp eq i32 %52, 1
  br i1 %53, label %127, label %54

54:                                               ; preds = %50
  %55 = load i8, ptr @H5_libinit_g, align 1, !tbaa !25, !range !49, !noundef !50
  %56 = trunc nuw i8 %55 to i1
  %57 = load i8, ptr @H5_libterm_g, align 1, !range !49
  %58 = trunc nuw i8 %57 to i1
  %59 = select i1 %56, i1 true, i1 %58
  br i1 %59, label %62, label %60, !prof !52

60:                                               ; preds = %54
  %61 = tail call i32 @H5open() #12
  br label %62

62:                                               ; preds = %54, %60
  %63 = load i64, ptr @H5T_NATIVE_INT_g, align 8, !tbaa !19
  %64 = tail call i32 @H5Tequal(i64 noundef %3, i64 noundef %63) #12
  %65 = icmp eq i32 %64, 1
  br i1 %65, label %127, label %66

66:                                               ; preds = %62
  %67 = load i8, ptr @H5_libinit_g, align 1, !tbaa !25, !range !49, !noundef !50
  %68 = trunc nuw i8 %67 to i1
  %69 = load i8, ptr @H5_libterm_g, align 1, !range !49
  %70 = trunc nuw i8 %69 to i1
  %71 = select i1 %68, i1 true, i1 %70
  br i1 %71, label %74, label %72, !prof !52

72:                                               ; preds = %66
  %73 = tail call i32 @H5open() #12
  br label %74

74:                                               ; preds = %66, %72
  %75 = load i64, ptr @H5T_NATIVE_UINT_g, align 8, !tbaa !19
  %76 = tail call i32 @H5Tequal(i64 noundef %3, i64 noundef %75) #12
  %77 = icmp eq i32 %76, 1
  br i1 %77, label %127, label %78

78:                                               ; preds = %74
  %79 = load i8, ptr @H5_libinit_g, align 1, !tbaa !25, !range !49, !noundef !50
  %80 = trunc nuw i8 %79 to i1
  %81 = load i8, ptr @H5_libterm_g, align 1, !range !49
  %82 = trunc nuw i8 %81 to i1
  %83 = select i1 %80, i1 true, i1 %82
  br i1 %83, label %86, label %84, !prof !52

84:                                               ; preds = %78
  %85 = tail call i32 @H5open() #12
  br label %86

86:                                               ; preds = %78, %84
  %87 = load i64, ptr @H5T_NATIVE_LONG_g, align 8, !tbaa !19
  %88 = tail call i32 @H5Tequal(i64 noundef %3, i64 noundef %87) #12
  %89 = icmp eq i32 %88, 1
  br i1 %89, label %127, label %90

90:                                               ; preds = %86
  %91 = load i8, ptr @H5_libinit_g, align 1, !tbaa !25, !range !49, !noundef !50
  %92 = trunc nuw i8 %91 to i1
  %93 = load i8, ptr @H5_libterm_g, align 1, !range !49
  %94 = trunc nuw i8 %93 to i1
  %95 = select i1 %92, i1 true, i1 %94
  br i1 %95, label %98, label %96, !prof !52

96:                                               ; preds = %90
  %97 = tail call i32 @H5open() #12
  br label %98

98:                                               ; preds = %90, %96
  %99 = load i64, ptr @H5T_NATIVE_ULONG_g, align 8, !tbaa !19
  %100 = tail call i32 @H5Tequal(i64 noundef %3, i64 noundef %99) #12
  %101 = icmp eq i32 %100, 1
  br i1 %101, label %127, label %102

102:                                              ; preds = %98
  %103 = load i8, ptr @H5_libinit_g, align 1, !tbaa !25, !range !49, !noundef !50
  %104 = trunc nuw i8 %103 to i1
  %105 = load i8, ptr @H5_libterm_g, align 1, !range !49
  %106 = trunc nuw i8 %105 to i1
  %107 = select i1 %104, i1 true, i1 %106
  br i1 %107, label %110, label %108, !prof !52

108:                                              ; preds = %102
  %109 = tail call i32 @H5open() #12
  br label %110

110:                                              ; preds = %102, %108
  %111 = load i64, ptr @H5T_NATIVE_LLONG_g, align 8, !tbaa !19
  %112 = tail call i32 @H5Tequal(i64 noundef %3, i64 noundef %111) #12
  %113 = icmp eq i32 %112, 1
  br i1 %113, label %127, label %114

114:                                              ; preds = %110
  %115 = load i8, ptr @H5_libinit_g, align 1, !tbaa !25, !range !49, !noundef !50
  %116 = trunc nuw i8 %115 to i1
  %117 = load i8, ptr @H5_libterm_g, align 1, !range !49
  %118 = trunc nuw i8 %117 to i1
  %119 = select i1 %116, i1 true, i1 %118
  br i1 %119, label %122, label %120, !prof !52

120:                                              ; preds = %114
  %121 = tail call i32 @H5open() #12
  br label %122

122:                                              ; preds = %114, %120
  %123 = load i64, ptr @H5T_NATIVE_ULLONG_g, align 8, !tbaa !19
  %124 = tail call i32 @H5Tequal(i64 noundef %3, i64 noundef %123) #12
  %125 = icmp eq i32 %124, 1
  br i1 %125, label %127, label %126

126:                                              ; preds = %122
  tail call void (ptr, ...) @error_msg(ptr noundef nonnull @.str.272) #12
  br label %133

127:                                              ; preds = %14, %26, %38, %50, %62, %74, %86, %98, %110, %122
  %.0.ph = phi i32 [ 64, %122 ], [ 64, %110 ], [ 64, %98 ], [ 64, %86 ], [ 32, %74 ], [ 32, %62 ], [ 16, %50 ], [ 16, %38 ], [ 8, %26 ], [ 8, %14 ]
  %128 = load i32, ptr @packed_data_offset, align 4, !tbaa !8
  %129 = load i32, ptr @packed_data_length, align 4, !tbaa !8
  %130 = add i32 %129, %128
  %131 = icmp ugt i32 %130, %.0.ph
  br i1 %131, label %132, label %133

132:                                              ; preds = %127
  tail call void (ptr, ...) @error_msg(ptr noundef nonnull @.str.273, i32 noundef %130, i32 noundef %.0.ph) #12
  store i64 0, ptr @packed_data_mask, align 8, !tbaa !160
  br label %133

133:                                              ; preds = %2, %126, %132, %127
  %134 = load i32, ptr @packed_data_offset, align 4, !tbaa !8
  %135 = load i32, ptr @packed_data_length, align 4, !tbaa !8
  %136 = tail call ptr (ptr, ptr, ...) @h5tools_str_append(ptr noundef %0, ptr noundef nonnull @.str.274, ptr noundef nonnull @.str.275, ptr noundef nonnull @.str.276, i32 noundef %134, ptr noundef nonnull @.str.277, i32 noundef %135) #12
  ret void
}